; Function Attrs: nounwind uwtable
define internal ptr @var_heaptype_get_data(ptr noundef %0, ptr noundef %1, ptr readnone captures(none) %2, i64 %3, ptr readnone captures(none) %4) #0 {
  %6 = tail call ptr @PyObject_GetTypeData(ptr noundef %0, ptr noundef %1) #8
  %.not = icmp eq ptr %6, null
  br i1 %.not, label %12, label %7

7:                                                ; preds = %5
  %8 = tail call i64 @PyType_GetTypeDataSize(ptr noundef %1) #8
  %9 = icmp slt i64 %8, 0
  br i1 %9, label %12, label %10

10:                                               ; preds = %7
  %11 = tail call ptr @PyBytes_FromStringAndSize(ptr noundef nonnull %6, i64 noundef %8) #8
  br label %12

12:                                               ; preds = %10, %7, %5
  %.0 = phi ptr [ null, %5 ], [ %11, %10 ], [ null, %7 ]
  ret ptr %.0
}